
;CodeVisionAVR C Compiler V3.45 
;(C) Copyright 1998-2021 Pavel Haiduc, HP InfoTech S.R.L.
;http://www.hpinfotech.ro

;Build configuration    : Debug
;Chip type              : ATmega8535
;Program type           : Application
;Clock frequency        : 1.000000 MHz
;Memory model           : Small
;Optimize for           : Size
;(s)printf features     : int, width
;(s)scanf features      : int, width
;External RAM size      : 0
;Data Stack size        : 128 byte(s)
;Heap size              : 0 byte(s)
;Promote 'char' to 'int': Yes
;'char' is unsigned     : Yes
;8 bit enums            : Yes
;Global 'const' stored in FLASH: Yes
;Enhanced function parameter passing: Mode 2
;Enhanced core instructions: On
;Automatic register allocation for global variables: On
;Smart register allocation: On

	#define _MODEL_SMALL_

	#pragma AVRPART ADMIN PART_NAME ATmega8535
	#pragma AVRPART MEMORY PROG_FLASH 8192
	#pragma AVRPART MEMORY EEPROM 512
	#pragma AVRPART MEMORY INT_SRAM SIZE 512
	#pragma AVRPART MEMORY INT_SRAM START_ADDR 0x60

	.LISTMAC
	.EQU UDRE=0x5
	.EQU RXC=0x7
	.EQU USR=0xB
	.EQU UDR=0xC
	.EQU SPSR=0xE
	.EQU SPDR=0xF
	.EQU EERE=0x0
	.EQU EEWE=0x1
	.EQU EEMWE=0x2
	.EQU EECR=0x1C
	.EQU EEDR=0x1D
	.EQU EEARL=0x1E
	.EQU EEARH=0x1F
	.EQU WDTCR=0x21
	.EQU MCUCR=0x35
	.EQU GICR=0x3B
	.EQU SPL=0x3D
	.EQU SPH=0x3E
	.EQU SREG=0x3F

	.DEF R0X0=R0
	.DEF R0X1=R1
	.DEF R0X2=R2
	.DEF R0X3=R3
	.DEF R0X4=R4
	.DEF R0X5=R5
	.DEF R0X6=R6
	.DEF R0X7=R7
	.DEF R0X8=R8
	.DEF R0X9=R9
	.DEF R0XA=R10
	.DEF R0XB=R11
	.DEF R0XC=R12
	.DEF R0XD=R13
	.DEF R0XE=R14
	.DEF R0XF=R15
	.DEF R0X10=R16
	.DEF R0X11=R17
	.DEF R0X12=R18
	.DEF R0X13=R19
	.DEF R0X14=R20
	.DEF R0X15=R21
	.DEF R0X16=R22
	.DEF R0X17=R23
	.DEF R0X18=R24
	.DEF R0X19=R25
	.DEF R0X1A=R26
	.DEF R0X1B=R27
	.DEF R0X1C=R28
	.DEF R0X1D=R29
	.DEF R0X1E=R30
	.DEF R0X1F=R31

	.EQU __SRAM_START=0x0060
	.EQU __SRAM_END=0x025F
	.EQU __DSTACK_SIZE=0x0080
	.EQU __HEAP_SIZE=0x0000
	.EQU __CLEAR_SRAM_SIZE=__SRAM_END-__SRAM_START+1

	.MACRO __CPD1N
	CPI  R30,LOW(@0)
	LDI  R26,HIGH(@0)
	CPC  R31,R26
	LDI  R26,BYTE3(@0)
	CPC  R22,R26
	LDI  R26,BYTE4(@0)
	CPC  R23,R26
	.ENDM

	.MACRO __CPD2N
	CPI  R26,LOW(@0)
	LDI  R30,HIGH(@0)
	CPC  R27,R30
	LDI  R30,BYTE3(@0)
	CPC  R24,R30
	LDI  R30,BYTE4(@0)
	CPC  R25,R30
	.ENDM

	.MACRO __CPWRR
	CP   R@0,R@2
	CPC  R@1,R@3
	.ENDM

	.MACRO __CPWRN
	CPI  R@0,LOW(@2)
	LDI  R30,HIGH(@2)
	CPC  R@1,R30
	.ENDM

	.MACRO __ADDB1MN
	SUBI R30,LOW(-@0-(@1))
	.ENDM

	.MACRO __ADDB2MN
	SUBI R26,LOW(-@0-(@1))
	.ENDM

	.MACRO __ADDW1MN
	SUBI R30,LOW(-@0-(@1))
	SBCI R31,HIGH(-@0-(@1))
	.ENDM

	.MACRO __ADDW2MN
	SUBI R26,LOW(-@0-(@1))
	SBCI R27,HIGH(-@0-(@1))
	.ENDM

	.MACRO __ADDW1FN
	SUBI R30,LOW(-2*@0-(@1))
	SBCI R31,HIGH(-2*@0-(@1))
	.ENDM

	.MACRO __ADDD1FN
	SUBI R30,LOW(-2*@0-(@1))
	SBCI R31,HIGH(-2*@0-(@1))
	SBCI R22,BYTE3(-2*@0-(@1))
	.ENDM

	.MACRO __ADDD1N
	SUBI R30,LOW(-@0)
	SBCI R31,HIGH(-@0)
	SBCI R22,BYTE3(-@0)
	SBCI R23,BYTE4(-@0)
	.ENDM

	.MACRO __ADDD2N
	SUBI R26,LOW(-@0)
	SBCI R27,HIGH(-@0)
	SBCI R24,BYTE3(-@0)
	SBCI R25,BYTE4(-@0)
	.ENDM

	.MACRO __SUBD1N
	SUBI R30,LOW(@0)
	SBCI R31,HIGH(@0)
	SBCI R22,BYTE3(@0)
	SBCI R23,BYTE4(@0)
	.ENDM

	.MACRO __SUBD2N
	SUBI R26,LOW(@0)
	SBCI R27,HIGH(@0)
	SBCI R24,BYTE3(@0)
	SBCI R25,BYTE4(@0)
	.ENDM

	.MACRO __ANDBMNN
	LDS  R30,@0+(@1)
	ANDI R30,LOW(@2)
	STS  @0+(@1),R30
	.ENDM

	.MACRO __ANDWMNN
	LDS  R30,@0+(@1)
	ANDI R30,LOW(@2)
	STS  @0+(@1),R30
	LDS  R30,@0+(@1)+1
	ANDI R30,HIGH(@2)
	STS  @0+(@1)+1,R30
	.ENDM

	.MACRO __ANDD1N
	ANDI R30,LOW(@0)
	ANDI R31,HIGH(@0)
	ANDI R22,BYTE3(@0)
	ANDI R23,BYTE4(@0)
	.ENDM

	.MACRO __ANDD2N
	ANDI R26,LOW(@0)
	ANDI R27,HIGH(@0)
	ANDI R24,BYTE3(@0)
	ANDI R25,BYTE4(@0)
	.ENDM

	.MACRO __ORBMNN
	LDS  R30,@0+(@1)
	ORI  R30,LOW(@2)
	STS  @0+(@1),R30
	.ENDM

	.MACRO __ORWMNN
	LDS  R30,@0+(@1)
	ORI  R30,LOW(@2)
	STS  @0+(@1),R30
	LDS  R30,@0+(@1)+1
	ORI  R30,HIGH(@2)
	STS  @0+(@1)+1,R30
	.ENDM

	.MACRO __ORD1N
	ORI  R30,LOW(@0)
	ORI  R31,HIGH(@0)
	ORI  R22,BYTE3(@0)
	ORI  R23,BYTE4(@0)
	.ENDM

	.MACRO __ORD2N
	ORI  R26,LOW(@0)
	ORI  R27,HIGH(@0)
	ORI  R24,BYTE3(@0)
	ORI  R25,BYTE4(@0)
	.ENDM

	.MACRO __DELAY_USB
	LDI  R24,LOW(@0)
__DELAY_USB_LOOP:
	DEC  R24
	BRNE __DELAY_USB_LOOP
	.ENDM

	.MACRO __DELAY_USW
	LDI  R24,LOW(@0)
	LDI  R25,HIGH(@0)
__DELAY_USW_LOOP:
	SBIW R24,1
	BRNE __DELAY_USW_LOOP
	.ENDM

	.MACRO __GETW1P
	LD   R30,X+
	LD   R31,X
	SBIW R26,1
	.ENDM

	.MACRO __GETD1S
	LDD  R30,Y+@0
	LDD  R31,Y+@0+1
	LDD  R22,Y+@0+2
	LDD  R23,Y+@0+3
	.ENDM

	.MACRO __GETD2S
	LDD  R26,Y+@0
	LDD  R27,Y+@0+1
	LDD  R24,Y+@0+2
	LDD  R25,Y+@0+3
	.ENDM

	.MACRO __GETD1P_INC
	LD   R30,X+
	LD   R31,X+
	LD   R22,X+
	LD   R23,X+
	.ENDM

	.MACRO __GETD1P_DEC
	LD   R23,-X
	LD   R22,-X
	LD   R31,-X
	LD   R30,-X
	.ENDM

	.MACRO __PUTDP1
	ST   X+,R30
	ST   X+,R31
	ST   X+,R22
	ST   X,R23
	.ENDM

	.MACRO __PUTDP1_DEC
	ST   -X,R23
	ST   -X,R22
	ST   -X,R31
	ST   -X,R30
	.ENDM

	.MACRO __PUTD1S
	STD  Y+@0,R30
	STD  Y+@0+1,R31
	STD  Y+@0+2,R22
	STD  Y+@0+3,R23
	.ENDM

	.MACRO __PUTD2S
	STD  Y+@0,R26
	STD  Y+@0+1,R27
	STD  Y+@0+2,R24
	STD  Y+@0+3,R25
	.ENDM

	.MACRO __PUTDZ2
	STD  Z+@0,R26
	STD  Z+@0+1,R27
	STD  Z+@0+2,R24
	STD  Z+@0+3,R25
	.ENDM

	.MACRO __CLRD1S
	STD  Y+@0,R30
	STD  Y+@0+1,R30
	STD  Y+@0+2,R30
	STD  Y+@0+3,R30
	.ENDM

	.MACRO __CPD10
	SBIW R30,0
	SBCI R22,0
	SBCI R23,0
	.ENDM

	.MACRO __CPD20
	SBIW R26,0
	SBCI R24,0
	SBCI R25,0
	.ENDM

	.MACRO __ADDD12
	ADD  R30,R26
	ADC  R31,R27
	ADC  R22,R24
	ADC  R23,R25
	.ENDM

	.MACRO __ADDD21
	ADD  R26,R30
	ADC  R27,R31
	ADC  R24,R22
	ADC  R25,R23
	.ENDM

	.MACRO __SUBD12
	SUB  R30,R26
	SBC  R31,R27
	SBC  R22,R24
	SBC  R23,R25
	.ENDM

	.MACRO __SUBD21
	SUB  R26,R30
	SBC  R27,R31
	SBC  R24,R22
	SBC  R25,R23
	.ENDM

	.MACRO __ANDD12
	AND  R30,R26
	AND  R31,R27
	AND  R22,R24
	AND  R23,R25
	.ENDM

	.MACRO __ORD12
	OR   R30,R26
	OR   R31,R27
	OR   R22,R24
	OR   R23,R25
	.ENDM

	.MACRO __XORD12
	EOR  R30,R26
	EOR  R31,R27
	EOR  R22,R24
	EOR  R23,R25
	.ENDM

	.MACRO __XORD21
	EOR  R26,R30
	EOR  R27,R31
	EOR  R24,R22
	EOR  R25,R23
	.ENDM

	.MACRO __COMD1
	COM  R30
	COM  R31
	COM  R22
	COM  R23
	.ENDM

	.MACRO __MULD2_2
	LSL  R26
	ROL  R27
	ROL  R24
	ROL  R25
	.ENDM

	.MACRO __LSRD1
	LSR  R23
	ROR  R22
	ROR  R31
	ROR  R30
	.ENDM

	.MACRO __LSLD1
	LSL  R30
	ROL  R31
	ROL  R22
	ROL  R23
	.ENDM

	.MACRO __ASRB4
	ASR  R30
	ASR  R30
	ASR  R30
	ASR  R30
	.ENDM

	.MACRO __ASRW8
	MOV  R30,R31
	CLR  R31
	SBRC R30,7
	SER  R31
	.ENDM

	.MACRO __LSRD16
	MOV  R30,R22
	MOV  R31,R23
	LDI  R22,0
	LDI  R23,0
	.ENDM

	.MACRO __LSLD16
	MOV  R22,R30
	MOV  R23,R31
	LDI  R30,0
	LDI  R31,0
	.ENDM

	.MACRO __CWD1
	MOV  R22,R31
	ADD  R22,R22
	SBC  R22,R22
	MOV  R23,R22
	.ENDM

	.MACRO __CWD2
	MOV  R24,R27
	ADD  R24,R24
	SBC  R24,R24
	MOV  R25,R24
	.ENDM

	.MACRO __SETMSD1
	SER  R31
	SER  R22
	SER  R23
	.ENDM

	.MACRO __ADDW1R15
	CLR  R0
	ADD  R30,R15
	ADC  R31,R0
	.ENDM

	.MACRO __ADDW2R15
	CLR  R0
	ADD  R26,R15
	ADC  R27,R0
	.ENDM

	.MACRO __EQB12
	CP   R30,R26
	LDI  R30,1
	BREQ PC+2
	CLR  R30
	.ENDM

	.MACRO __NEB12
	CP   R30,R26
	LDI  R30,1
	BRNE PC+2
	CLR  R30
	.ENDM

	.MACRO __LEB12
	CP   R30,R26
	LDI  R30,1
	BRGE PC+2
	CLR  R30
	.ENDM

	.MACRO __GEB12
	CP   R26,R30
	LDI  R30,1
	BRGE PC+2
	CLR  R30
	.ENDM

	.MACRO __LTB12
	CP   R26,R30
	LDI  R30,1
	BRLT PC+2
	CLR  R30
	.ENDM

	.MACRO __GTB12
	CP   R30,R26
	LDI  R30,1
	BRLT PC+2
	CLR  R30
	.ENDM

	.MACRO __LEB12U
	CP   R30,R26
	LDI  R30,1
	BRSH PC+2
	CLR  R30
	.ENDM

	.MACRO __GEB12U
	CP   R26,R30
	LDI  R30,1
	BRSH PC+2
	CLR  R30
	.ENDM

	.MACRO __LTB12U
	CP   R26,R30
	LDI  R30,1
	BRLO PC+2
	CLR  R30
	.ENDM

	.MACRO __GTB12U
	CP   R30,R26
	LDI  R30,1
	BRLO PC+2
	CLR  R30
	.ENDM

	.MACRO __CPW01
	CLR  R0
	CP   R0,R30
	CPC  R0,R31
	.ENDM

	.MACRO __CPW02
	CLR  R0
	CP   R0,R26
	CPC  R0,R27
	.ENDM

	.MACRO __CPD12
	CP   R30,R26
	CPC  R31,R27
	CPC  R22,R24
	CPC  R23,R25
	.ENDM

	.MACRO __CPD21
	CP   R26,R30
	CPC  R27,R31
	CPC  R24,R22
	CPC  R25,R23
	.ENDM

	.MACRO __BSTB1
	CLT
	TST  R30
	BREQ PC+2
	SET
	.ENDM

	.MACRO __LNEGB1
	TST  R30
	LDI  R30,1
	BREQ PC+2
	CLR  R30
	.ENDM

	.MACRO __LNEGW1
	OR   R30,R31
	LDI  R30,1
	BREQ PC+2
	LDI  R30,0
	.ENDM

	.MACRO __POINTB1MN
	LDI  R30,LOW(@0+(@1))
	.ENDM

	.MACRO __POINTW1MN
	LDI  R30,LOW(@0+(@1))
	LDI  R31,HIGH(@0+(@1))
	.ENDM

	.MACRO __POINTD1M
	LDI  R30,LOW(@0)
	LDI  R31,HIGH(@0)
	LDI  R22,BYTE3(@0)
	LDI  R23,BYTE4(@0)
	.ENDM

	.MACRO __POINTW1FN
	LDI  R30,LOW(2*@0+(@1))
	LDI  R31,HIGH(2*@0+(@1))
	.ENDM

	.MACRO __POINTD1FN
	LDI  R30,LOW(2*@0+(@1))
	LDI  R31,HIGH(2*@0+(@1))
	LDI  R22,BYTE3(2*@0+(@1))
	LDI  R23,BYTE4(2*@0+(@1))
	.ENDM

	.MACRO __POINTB2MN
	LDI  R26,LOW(@0+(@1))
	.ENDM

	.MACRO __POINTW2MN
	LDI  R26,LOW(@0+(@1))
	LDI  R27,HIGH(@0+(@1))
	.ENDM

	.MACRO __POINTD2M
	LDI  R26,LOW(@0)
	LDI  R27,HIGH(@0)
	LDI  R24,BYTE3(@0)
	LDI  R25,BYTE4(@0)
	.ENDM

	.MACRO __POINTW2FN
	LDI  R26,LOW(2*@0+(@1))
	LDI  R27,HIGH(2*@0+(@1))
	.ENDM

	.MACRO __POINTD2FN
	LDI  R26,LOW(2*@0+(@1))
	LDI  R27,HIGH(2*@0+(@1))
	LDI  R24,BYTE3(2*@0+(@1))
	LDI  R25,BYTE4(2*@0+(@1))
	.ENDM

	.MACRO __POINTBRM
	LDI  R@0,LOW(@1)
	.ENDM

	.MACRO __POINTWRM
	LDI  R@0,LOW(@2)
	LDI  R@1,HIGH(@2)
	.ENDM

	.MACRO __POINTBRMN
	LDI  R@0,LOW(@1+(@2))
	.ENDM

	.MACRO __POINTWRMN
	LDI  R@0,LOW(@2+(@3))
	LDI  R@1,HIGH(@2+(@3))
	.ENDM

	.MACRO __POINTWRFN
	LDI  R@0,LOW(@2*2+(@3))
	LDI  R@1,HIGH(@2*2+(@3))
	.ENDM

	.MACRO __GETD1N
	LDI  R30,LOW(@0)
	LDI  R31,HIGH(@0)
	LDI  R22,BYTE3(@0)
	LDI  R23,BYTE4(@0)
	.ENDM

	.MACRO __GETD2N
	LDI  R26,LOW(@0)
	LDI  R27,HIGH(@0)
	LDI  R24,BYTE3(@0)
	LDI  R25,BYTE4(@0)
	.ENDM

	.MACRO __GETB1MN
	LDS  R30,@0+(@1)
	.ENDM

	.MACRO __GETB1HMN
	LDS  R31,@0+(@1)
	.ENDM

	.MACRO __GETW1MN
	LDS  R30,@0+(@1)
	LDS  R31,@0+(@1)+1
	.ENDM

	.MACRO __GETD1MN
	LDS  R30,@0+(@1)
	LDS  R31,@0+(@1)+1
	LDS  R22,@0+(@1)+2
	LDS  R23,@0+(@1)+3
	.ENDM

	.MACRO __GETBRMN
	LDS  R@0,@1+(@2)
	.ENDM

	.MACRO __GETWRMN
	LDS  R@0,@2+(@3)
	LDS  R@1,@2+(@3)+1
	.ENDM

	.MACRO __GETWRZ
	LDD  R@0,Z+@2
	LDD  R@1,Z+@2+1
	.ENDM

	.MACRO __GETD2Z
	LDD  R26,Z+@0
	LDD  R27,Z+@0+1
	LDD  R24,Z+@0+2
	LDD  R25,Z+@0+3
	.ENDM

	.MACRO __GETB2MN
	LDS  R26,@0+(@1)
	.ENDM

	.MACRO __GETW2MN
	LDS  R26,@0+(@1)
	LDS  R27,@0+(@1)+1
	.ENDM

	.MACRO __GETD2MN
	LDS  R26,@0+(@1)
	LDS  R27,@0+(@1)+1
	LDS  R24,@0+(@1)+2
	LDS  R25,@0+(@1)+3
	.ENDM

	.MACRO __PUTB1MN
	STS  @0+(@1),R30
	.ENDM

	.MACRO __PUTW1MN
	STS  @0+(@1),R30
	STS  @0+(@1)+1,R31
	.ENDM

	.MACRO __PUTD1MN
	STS  @0+(@1),R30
	STS  @0+(@1)+1,R31
	STS  @0+(@1)+2,R22
	STS  @0+(@1)+3,R23
	.ENDM

	.MACRO __PUTB1EN
	LDI  R26,LOW(@0+(@1))
	LDI  R27,HIGH(@0+(@1))
	RCALL __EEPROMWRB
	.ENDM

	.MACRO __PUTW1EN
	LDI  R26,LOW(@0+(@1))
	LDI  R27,HIGH(@0+(@1))
	RCALL __EEPROMWRW
	.ENDM

	.MACRO __PUTD1EN
	LDI  R26,LOW(@0+(@1))
	LDI  R27,HIGH(@0+(@1))
	RCALL __EEPROMWRD
	.ENDM

	.MACRO __PUTBR0MN
	STS  @0+(@1),R0
	.ENDM

	.MACRO __PUTBMRN
	STS  @0+(@1),R@2
	.ENDM

	.MACRO __PUTWMRN
	STS  @0+(@1),R@2
	STS  @0+(@1)+1,R@3
	.ENDM

	.MACRO __PUTBZR
	STD  Z+@1,R@0
	.ENDM

	.MACRO __PUTWZR
	STD  Z+@2,R@0
	STD  Z+@2+1,R@1
	.ENDM

	.MACRO __GETW1R
	MOV  R30,R@0
	MOV  R31,R@1
	.ENDM

	.MACRO __GETW2R
	MOV  R26,R@0
	MOV  R27,R@1
	.ENDM

	.MACRO __GETWRN
	LDI  R@0,LOW(@2)
	LDI  R@1,HIGH(@2)
	.ENDM

	.MACRO __PUTW1R
	MOV  R@0,R30
	MOV  R@1,R31
	.ENDM

	.MACRO __PUTW2R
	MOV  R@0,R26
	MOV  R@1,R27
	.ENDM

	.MACRO __ADDWRN
	SUBI R@0,LOW(-@2)
	SBCI R@1,HIGH(-@2)
	.ENDM

	.MACRO __ADDWRR
	ADD  R@0,R@2
	ADC  R@1,R@3
	.ENDM

	.MACRO __SUBWRN
	SUBI R@0,LOW(@2)
	SBCI R@1,HIGH(@2)
	.ENDM

	.MACRO __SUBWRR
	SUB  R@0,R@2
	SBC  R@1,R@3
	.ENDM

	.MACRO __ANDWRN
	ANDI R@0,LOW(@2)
	ANDI R@1,HIGH(@2)
	.ENDM

	.MACRO __ANDWRR
	AND  R@0,R@2
	AND  R@1,R@3
	.ENDM

	.MACRO __ORWRN
	ORI  R@0,LOW(@2)
	ORI  R@1,HIGH(@2)
	.ENDM

	.MACRO __ORWRR
	OR   R@0,R@2
	OR   R@1,R@3
	.ENDM

	.MACRO __EORWRR
	EOR  R@0,R@2
	EOR  R@1,R@3
	.ENDM

	.MACRO __GETWRS
	LDD  R@0,Y+@2
	LDD  R@1,Y+@2+1
	.ENDM

	.MACRO __PUTBSR
	STD  Y+@1,R@0
	.ENDM

	.MACRO __PUTWSR
	STD  Y+@2,R@0
	STD  Y+@2+1,R@1
	.ENDM

	.MACRO __MOVEWRR
	MOV  R@0,R@2
	MOV  R@1,R@3
	.ENDM

	.MACRO __INWR
	IN   R@0,@2
	IN   R@1,@2+1
	.ENDM

	.MACRO __OUTWR
	OUT  @2+1,R@1
	OUT  @2,R@0
	.ENDM

	.MACRO __CALL1MN
	LDS  R30,@0+(@1)
	LDS  R31,@0+(@1)+1
	ICALL
	.ENDM

	.MACRO __CALL1FN
	LDI  R30,LOW(2*@0+(@1))
	LDI  R31,HIGH(2*@0+(@1))
	RCALL __GETW1PF
	ICALL
	.ENDM

	.MACRO __CALL2EN
	PUSH R26
	PUSH R27
	LDI  R26,LOW(@0+(@1))
	LDI  R27,HIGH(@0+(@1))
	RCALL __EEPROMRDW
	POP  R27
	POP  R26
	ICALL
	.ENDM

	.MACRO __CALL2EX
	SUBI R26,LOW(-@0)
	SBCI R27,HIGH(-@0)
	RCALL __EEPROMRDD
	ICALL
	.ENDM

	.MACRO __GETW1STACK
	IN   R30,SPL
	IN   R31,SPH
	ADIW R30,@0+1
	LD   R0,Z+
	LD   R31,Z
	MOV  R30,R0
	.ENDM

	.MACRO __GETD1STACK
	IN   R30,SPL
	IN   R31,SPH
	ADIW R30,@0+1
	LD   R0,Z+
	LD   R1,Z+
	LD   R22,Z
	MOVW R30,R0
	.ENDM

	.MACRO __NBST
	BST  R@0,@1
	IN   R30,SREG
	LDI  R31,0x40
	EOR  R30,R31
	OUT  SREG,R30
	.ENDM


	.MACRO __PUTB1SN
	LDD  R26,Y+@0
	LDD  R27,Y+@0+1
	SUBI R26,LOW(-@1)
	SBCI R27,HIGH(-@1)
	ST   X,R30
	.ENDM

	.MACRO __PUTW1SN
	LDD  R26,Y+@0
	LDD  R27,Y+@0+1
	SUBI R26,LOW(-@1)
	SBCI R27,HIGH(-@1)
	ST   X+,R30
	ST   X,R31
	.ENDM

	.MACRO __PUTD1SN
	LDD  R26,Y+@0
	LDD  R27,Y+@0+1
	SUBI R26,LOW(-@1)
	SBCI R27,HIGH(-@1)
	ST   X+,R30
	ST   X+,R31
	ST   X+,R22
	ST   X,R23
	.ENDM

	.MACRO __PUTB1SNS
	LDD  R26,Y+@0
	LDD  R27,Y+@0+1
	ADIW R26,@1
	ST   X,R30
	.ENDM

	.MACRO __PUTW1SNS
	LDD  R26,Y+@0
	LDD  R27,Y+@0+1
	ADIW R26,@1
	ST   X+,R30
	ST   X,R31
	.ENDM

	.MACRO __PUTD1SNS
	LDD  R26,Y+@0
	LDD  R27,Y+@0+1
	ADIW R26,@1
	ST   X+,R30
	ST   X+,R31
	ST   X+,R22
	ST   X,R23
	.ENDM

	.MACRO __PUTB1PMN
	LDS  R26,@0
	LDS  R27,@0+1
	SUBI R26,LOW(-@1)
	SBCI R27,HIGH(-@1)
	ST   X,R30
	.ENDM

	.MACRO __PUTW1PMN
	LDS  R26,@0
	LDS  R27,@0+1
	SUBI R26,LOW(-@1)
	SBCI R27,HIGH(-@1)
	ST   X+,R30
	ST   X,R31
	.ENDM

	.MACRO __PUTD1PMN
	LDS  R26,@0
	LDS  R27,@0+1
	SUBI R26,LOW(-@1)
	SBCI R27,HIGH(-@1)
	ST   X+,R30
	ST   X+,R31
	ST   X+,R22
	ST   X,R23
	.ENDM

	.MACRO __PUTB1PMNS
	LDS  R26,@0
	LDS  R27,@0+1
	ADIW R26,@1
	ST   X,R30
	.ENDM

	.MACRO __PUTW1PMNS
	LDS  R26,@0
	LDS  R27,@0+1
	ADIW R26,@1
	ST   X+,R30
	ST   X,R31
	.ENDM

	.MACRO __PUTD1PMNS
	LDS  R26,@0
	LDS  R27,@0+1
	ADIW R26,@1
	ST   X+,R30
	ST   X+,R31
	ST   X+,R22
	ST   X,R23
	.ENDM

	.MACRO __PUTB1RN
	MOVW R26,R@0
	SUBI R26,LOW(-@1)
	SBCI R27,HIGH(-@1)
	ST   X,R30
	.ENDM

	.MACRO __PUTW1RN
	MOVW R26,R@0
	SUBI R26,LOW(-@1)
	SBCI R27,HIGH(-@1)
	ST   X+,R30
	ST   X,R31
	.ENDM

	.MACRO __PUTD1RN
	MOVW R26,R@0
	SUBI R26,LOW(-@1)
	SBCI R27,HIGH(-@1)
	ST   X+,R30
	ST   X+,R31
	ST   X+,R22
	ST   X,R23
	.ENDM

	.MACRO __PUTB1RNS
	MOVW R26,R@0
	ADIW R26,@1
	ST   X,R30
	.ENDM

	.MACRO __PUTW1RNS
	MOVW R26,R@0
	ADIW R26,@1
	ST   X+,R30
	ST   X,R31
	.ENDM

	.MACRO __PUTD1RNS
	MOVW R26,R@0
	ADIW R26,@1
	ST   X+,R30
	ST   X+,R31
	ST   X+,R22
	ST   X,R23
	.ENDM

	.MACRO __PUTB1RON
	MOV  R26,R@0
	MOV  R27,R@1
	SUBI R26,LOW(-@2)
	SBCI R27,HIGH(-@2)
	ST   X,R30
	.ENDM

	.MACRO __PUTW1RON
	MOV  R26,R@0
	MOV  R27,R@1
	SUBI R26,LOW(-@2)
	SBCI R27,HIGH(-@2)
	ST   X+,R30
	ST   X,R31
	.ENDM

	.MACRO __PUTD1RON
	MOV  R26,R@0
	MOV  R27,R@1
	SUBI R26,LOW(-@2)
	SBCI R27,HIGH(-@2)
	ST   X+,R30
	ST   X+,R31
	ST   X+,R22
	ST   X,R23
	.ENDM

	.MACRO __PUTB1RONS
	MOV  R26,R@0
	MOV  R27,R@1
	ADIW R26,@2
	ST   X,R30
	.ENDM

	.MACRO __PUTW1RONS
	MOV  R26,R@0
	MOV  R27,R@1
	ADIW R26,@2
	ST   X+,R30
	ST   X,R31
	.ENDM

	.MACRO __PUTD1RONS
	MOV  R26,R@0
	MOV  R27,R@1
	ADIW R26,@2
	ST   X+,R30
	ST   X+,R31
	ST   X+,R22
	ST   X,R23
	.ENDM


	.MACRO __GETB1SX
	MOVW R30,R28
	SUBI R30,LOW(-@0)
	SBCI R31,HIGH(-@0)
	LD   R30,Z
	.ENDM

	.MACRO __GETB1HSX
	MOVW R30,R28
	SUBI R30,LOW(-@0)
	SBCI R31,HIGH(-@0)
	LD   R31,Z
	.ENDM

	.MACRO __GETW1SX
	MOVW R30,R28
	SUBI R30,LOW(-@0)
	SBCI R31,HIGH(-@0)
	RCALL __GETW1Z
	.ENDM

	.MACRO __GETD1SX
	MOVW R30,R28
	SUBI R30,LOW(-@0)
	SBCI R31,HIGH(-@0)
	RCALL __GETD1Z
	.ENDM

	.MACRO __GETB2SX
	MOVW R26,R28
	SUBI R26,LOW(-@0)
	SBCI R27,HIGH(-@0)
	LD   R26,X
	.ENDM

	.MACRO __GETW2SX
	MOVW R26,R28
	SUBI R26,LOW(-@0)
	SBCI R27,HIGH(-@0)
	RCALL __GETW2X
	.ENDM

	.MACRO __GETD2SX
	MOVW R26,R28
	SUBI R26,LOW(-@0)
	SBCI R27,HIGH(-@0)
	RCALL __GETD2X
	.ENDM

	.MACRO __GETBRSX
	MOVW R30,R28
	SUBI R30,LOW(-@1)
	SBCI R31,HIGH(-@1)
	LD   R@0,Z
	.ENDM

	.MACRO __GETWRSX
	MOVW R30,R28
	SUBI R30,LOW(-@2)
	SBCI R31,HIGH(-@2)
	LD   R@0,Z+
	LD   R@1,Z
	.ENDM

	.MACRO __GETBRSX2
	MOVW R26,R28
	SUBI R26,LOW(-@1)
	SBCI R27,HIGH(-@1)
	LD   R@0,X
	.ENDM

	.MACRO __GETWRSX2
	MOVW R26,R28
	SUBI R26,LOW(-@2)
	SBCI R27,HIGH(-@2)
	LD   R@0,X+
	LD   R@1,X
	.ENDM

	.MACRO __LSLW8SX
	MOVW R30,R28
	SUBI R30,LOW(-@0)
	SBCI R31,HIGH(-@0)
	LD   R31,Z
	CLR  R30
	.ENDM

	.MACRO __PUTB1SX
	MOVW R26,R28
	SUBI R26,LOW(-@0)
	SBCI R27,HIGH(-@0)
	ST   X,R30
	.ENDM

	.MACRO __PUTW1SX
	MOVW R26,R28
	SUBI R26,LOW(-@0)
	SBCI R27,HIGH(-@0)
	ST   X+,R30
	ST   X,R31
	.ENDM

	.MACRO __PUTD1SX
	MOVW R26,R28
	SUBI R26,LOW(-@0)
	SBCI R27,HIGH(-@0)
	ST   X+,R30
	ST   X+,R31
	ST   X+,R22
	ST   X,R23
	.ENDM

	.MACRO __CLRW1SX
	MOVW R26,R28
	SUBI R26,LOW(-@0)
	SBCI R27,HIGH(-@0)
	ST   X+,R30
	ST   X,R30
	.ENDM

	.MACRO __CLRD1SX
	MOVW R26,R28
	SUBI R26,LOW(-@0)
	SBCI R27,HIGH(-@0)
	ST   X+,R30
	ST   X+,R30
	ST   X+,R30
	ST   X,R30
	.ENDM

	.MACRO __PUTB2SX
	MOVW R30,R28
	SUBI R30,LOW(-@0)
	SBCI R31,HIGH(-@0)
	ST   Z,R26
	.ENDM

	.MACRO __PUTW2SX
	MOVW R30,R28
	SUBI R30,LOW(-@0)
	SBCI R31,HIGH(-@0)
	ST   Z+,R26
	ST   Z,R27
	.ENDM

	.MACRO __PUTD2SX
	MOVW R30,R28
	SUBI R30,LOW(-@0)
	SBCI R31,HIGH(-@0)
	ST   Z+,R26
	ST   Z+,R27
	ST   Z+,R24
	ST   Z,R25
	.ENDM

	.MACRO __PUTBSRX
	MOVW R30,R28
	SUBI R30,LOW(-@1)
	SBCI R31,HIGH(-@1)
	ST   Z,R@0
	.ENDM

	.MACRO __PUTWSRX
	MOVW R30,R28
	SUBI R30,LOW(-@2)
	SBCI R31,HIGH(-@2)
	ST   Z+,R@0
	ST   Z,R@1
	.ENDM

	.MACRO __PUTB1SNX
	MOVW R26,R28
	SUBI R26,LOW(-@0)
	SBCI R27,HIGH(-@0)
	LD   R0,X+
	LD   R27,X
	MOV  R26,R0
	SUBI R26,LOW(-@1)
	SBCI R27,HIGH(-@1)
	ST   X,R30
	.ENDM

	.MACRO __PUTW1SNX
	MOVW R26,R28
	SUBI R26,LOW(-@0)
	SBCI R27,HIGH(-@0)
	LD   R0,X+
	LD   R27,X
	MOV  R26,R0
	SUBI R26,LOW(-@1)
	SBCI R27,HIGH(-@1)
	ST   X+,R30
	ST   X,R31
	.ENDM

	.MACRO __PUTD1SNX
	MOVW R26,R28
	SUBI R26,LOW(-@0)
	SBCI R27,HIGH(-@0)
	LD   R0,X+
	LD   R27,X
	MOV  R26,R0
	SUBI R26,LOW(-@1)
	SBCI R27,HIGH(-@1)
	ST   X+,R30
	ST   X+,R31
	ST   X+,R22
	ST   X,R23
	.ENDM

	.MACRO __MULBRR
	MULS R@0,R@1
	MOVW R30,R0
	.ENDM

	.MACRO __MULBRRU
	MUL  R@0,R@1
	MOVW R30,R0
	.ENDM

	.MACRO __MULBRR0
	MULS R@0,R@1
	.ENDM

	.MACRO __MULBRRU0
	MUL  R@0,R@1
	.ENDM

	.MACRO __MULBNWRU
	LDI  R26,@2
	MUL  R26,R@0
	MOVW R30,R0
	MUL  R26,R@1
	ADD  R31,R0
	.ENDM

;NAME DEFINITIONS FOR GLOBAL VARIABLES ALLOCATED TO REGISTERS
	.DEF _player_1_score=R5
	.DEF _player_2_score=R4
	.DEF _i=R6
	.DEF _i_msb=R7
	.DEF _j=R8
	.DEF _j_msb=R9

	.CSEG
	.ORG 0x00

;START OF CODE MARKER
__START_OF_CODE:

;INTERRUPT VECTORS
	RJMP __RESET
	RJMP 0x00
	RJMP 0x00
	RJMP 0x00
	RJMP 0x00
	RJMP 0x00
	RJMP 0x00
	RJMP 0x00
	RJMP 0x00
	RJMP 0x00
	RJMP 0x00
	RJMP 0x00
	RJMP 0x00
	RJMP 0x00
	RJMP 0x00
	RJMP 0x00
	RJMP 0x00
	RJMP 0x00
	RJMP 0x00
	RJMP 0x00
	RJMP 0x00

_display_table:
	.DB  0x3F,0x6,0x5B,0x4F,0x66,0x6D,0x7C,0x7
	.DB  0x7F,0x6F

;REGISTER BIT VARIABLES INITIALIZATION
__REG_BIT_VARS:
	.DW  0x0001

;GLOBAL REGISTER VARIABLES INITIALIZATION
__REG_VARS:
	.DB  0x0,0x9

_0x2000060:
	.DB  0x1
_0x2000000:
	.DB  0x2D,0x4E,0x41,0x4E,0x0,0x49,0x4E,0x46
	.DB  0x0

__GLOBAL_INI_TBL:
	.DW  0x02
	.DW  0x02
	.DW  __REG_BIT_VARS*2

	.DW  0x02
	.DW  0x04
	.DW  __REG_VARS*2

	.DW  0x01
	.DW  __seed_G100
	.DW  _0x2000060*2

_0xFFFFFFFF:
	.DW  0

#define __GLOBAL_INI_TBL_PRESENT 1

__RESET:
	CLI
	CLR  R30
	OUT  EECR,R30

;INTERRUPT VECTORS ARE PLACED
;AT THE START OF FLASH
	LDI  R31,1
	OUT  GICR,R31
	OUT  GICR,R30
	OUT  MCUCR,R30

;CLEAR R2-R14
	LDI  R24,(14-2)+1
	LDI  R26,2
	CLR  R27
__CLEAR_REG:
	ST   X+,R30
	DEC  R24
	BRNE __CLEAR_REG

;CLEAR SRAM
	LDI  R24,LOW(__CLEAR_SRAM_SIZE)
	LDI  R25,HIGH(__CLEAR_SRAM_SIZE)
	LDI  R26,__SRAM_START
__CLEAR_SRAM:
	ST   X+,R30
	SBIW R24,1
	BRNE __CLEAR_SRAM

;GLOBAL VARIABLES INITIALIZATION
	LDI  R30,LOW(__GLOBAL_INI_TBL*2)
	LDI  R31,HIGH(__GLOBAL_INI_TBL*2)
__GLOBAL_INI_NEXT:
	LPM  R24,Z+
	LPM  R25,Z+
	SBIW R24,0
	BREQ __GLOBAL_INI_END
	LPM  R26,Z+
	LPM  R27,Z+
	LPM  R0,Z+
	LPM  R1,Z+
	MOVW R22,R30
	MOVW R30,R0
__GLOBAL_INI_LOOP:
	LPM  R0,Z+
	ST   X+,R0
	SBIW R24,1
	BRNE __GLOBAL_INI_LOOP
	MOVW R30,R22
	RJMP __GLOBAL_INI_NEXT
__GLOBAL_INI_END:

;HARDWARE STACK POINTER INITIALIZATION
	LDI  R30,LOW(__SRAM_END-__HEAP_SIZE)
	OUT  SPL,R30
	LDI  R30,HIGH(__SRAM_END-__HEAP_SIZE)
	OUT  SPH,R30

;DATA STACK POINTER INITIALIZATION
	LDI  R28,LOW(__SRAM_START+__DSTACK_SIZE)
	LDI  R29,HIGH(__SRAM_START+__DSTACK_SIZE)

	RJMP _main

	.ESEG
	.ORG 0x00

	.DSEG
	.ORG 0xE0

	.CSEG
	#ifndef __SLEEP_DEFINED__
	#define __SLEEP_DEFINED__
	.EQU __se_bit=0x40
	.EQU __sm_mask=0xB0
	.EQU __sm_powerdown=0x20
	.EQU __sm_powersave=0x30
	.EQU __sm_standby=0xA0
	.EQU __sm_ext_standby=0xB0
	.EQU __sm_adc_noise_red=0x10
	.SET power_ctrl_reg=mcucr
	#endif
;void paint();
;void paint_scoreboard();
;void check_changes();
;void update_ball();
;void check_pause_reset();
;void main(void)
; 0000 0046 {

	.CSEG
_main:
; .FSTART _main
; 0000 0047 // Declare your local variables here
; 0000 0048 
; 0000 0049 // Input/Output Ports initialization
; 0000 004A // Port A initialization
; 0000 004B // Function: Bit7=Out Bit6=Out Bit5=Out Bit4=Out Bit3=Out Bit2=Out Bit1=Out Bit0=Out
; 0000 004C DDRA=(1<<DDA7) | (1<<DDA6) | (1<<DDA5) | (1<<DDA4) | (1<<DDA3) | (1<<DDA2) | (1<<DDA1) | (1<<DDA0);
	LDI  R30,LOW(255)
	OUT  0x1A,R30
; 0000 004D // State: Bit7=0 Bit6=0 Bit5=0 Bit4=0 Bit3=0 Bit2=0 Bit1=0 Bit0=0
; 0000 004E PORTA=(0<<PORTA7) | (0<<PORTA6) | (0<<PORTA5) | (0<<PORTA4) | (0<<PORTA3) | (0<<PORTA2) | (0<<PORTA1) | (0<<PORTA0);
	LDI  R30,LOW(0)
	OUT  0x1B,R30
; 0000 004F 
; 0000 0050 // Port B initialization
; 0000 0051 // Function: Bit7=Out Bit6=Out Bit5=Out Bit4=Out Bit3=Out Bit2=Out Bit1=Out Bit0=Out
; 0000 0052 DDRB=(1<<DDB7) | (1<<DDB6) | (1<<DDB5) | (1<<DDB4) | (1<<DDB3) | (1<<DDB2) | (1<<DDB1) | (1<<DDB0);
	LDI  R30,LOW(255)
	OUT  0x17,R30
; 0000 0053 // State: Bit7=0 Bit6=0 Bit5=0 Bit4=0 Bit3=0 Bit2=0 Bit1=0 Bit0=0
; 0000 0054 PORTB=(0<<PORTB7) | (0<<PORTB6) | (0<<PORTB5) | (0<<PORTB4) | (0<<PORTB3) | (0<<PORTB2) | (0<<PORTB1) | (0<<PORTB0);
	LDI  R30,LOW(0)
	OUT  0x18,R30
; 0000 0055 
; 0000 0056 // Port C initialization
; 0000 0057 // Function: Bit7=Out Bit6=Out Bit5=Out Bit4=Out Bit3=Out Bit2=Out Bit1=Out Bit0=Out
; 0000 0058 DDRC=(1<<DDC7) | (1<<DDC6) | (1<<DDC5) | (1<<DDC4) | (1<<DDC3) | (1<<DDC2) | (1<<DDC1) | (1<<DDC0);
	LDI  R30,LOW(255)
	OUT  0x14,R30
; 0000 0059 // State: Bit7=0 Bit6=0 Bit5=0 Bit4=0 Bit3=0 Bit2=0 Bit1=0 Bit0=0
; 0000 005A PORTC=(0<<PORTC7) | (0<<PORTC6) | (0<<PORTC5) | (0<<PORTC4) | (0<<PORTC3) | (0<<PORTC2) | (0<<PORTC1) | (0<<PORTC0);
	LDI  R30,LOW(0)
	OUT  0x15,R30
; 0000 005B 
; 0000 005C // Port D initialization
; 0000 005D // Function: Bit7=In Bit6=In Bit5=Out Bit4=Out Bit3=In Bit2=In Bit1=In Bit0=In
; 0000 005E DDRD=(0<<DDD7) | (0<<DDD6) | (1<<DDD5) | (1<<DDD4) | (0<<DDD3) | (0<<DDD2) | (0<<DDD1) | (0<<DDD0);
	LDI  R30,LOW(48)
	OUT  0x11,R30
; 0000 005F // State: Bit7=T Bit6=T Bit5=0 Bit4=0 Bit3=P Bit2=P Bit1=P Bit0=P
; 0000 0060 PORTD=(1<<PORTD7) | (1<<PORTD6) | (0<<PORTD5) | (0<<PORTD4) | (1<<PORTD3) | (1<<PORTD2) | (1<<PORTD1) | (1<<PORTD0);
	LDI  R30,LOW(207)
	OUT  0x12,R30
; 0000 0061 
; 0000 0062 // Timer/Counter 0 initialization
; 0000 0063 // Clock source: System Clock
; 0000 0064 // Clock value: Timer 0 Stopped
; 0000 0065 // Mode: Normal top=0xFF
; 0000 0066 // OC0 output: Disconnected
; 0000 0067 TCCR0=(0<<WGM00) | (0<<COM01) | (0<<COM00) | (0<<WGM01) | (0<<CS02) | (0<<CS01) | (0<<CS00);
	LDI  R30,LOW(0)
	OUT  0x33,R30
; 0000 0068 TCNT0=0x00;
	OUT  0x32,R30
; 0000 0069 OCR0=0x00;
	OUT  0x3C,R30
; 0000 006A 
; 0000 006B // Timer/Counter 1 initialization
; 0000 006C // Clock source: System Clock
; 0000 006D // Clock value: Timer1 Stopped
; 0000 006E // Mode: Normal top=0xFFFF
; 0000 006F // OC1A output: Disconnected
; 0000 0070 // OC1B output: Disconnected
; 0000 0071 // Noise Canceler: Off
; 0000 0072 // Input Capture on Falling Edge
; 0000 0073 // Timer1 Overflow Interrupt: Off
; 0000 0074 // Input Capture Interrupt: Off
; 0000 0075 // Compare A Match Interrupt: Off
; 0000 0076 // Compare B Match Interrupt: Off
; 0000 0077 TCCR1A=(0<<COM1A1) | (0<<COM1A0) | (0<<COM1B1) | (0<<COM1B0) | (0<<WGM11) | (0<<WGM10);
	OUT  0x2F,R30
; 0000 0078 TCCR1B=(0<<ICNC1) | (0<<ICES1) | (0<<WGM13) | (0<<WGM12) | (0<<CS12) | (0<<CS11) | (0<<CS10);
	OUT  0x2E,R30
; 0000 0079 TCNT1H=0x00;
	OUT  0x2D,R30
; 0000 007A TCNT1L=0x00;
	OUT  0x2C,R30
; 0000 007B ICR1H=0x00;
	OUT  0x27,R30
; 0000 007C ICR1L=0x00;
	OUT  0x26,R30
; 0000 007D OCR1AH=0x00;
	OUT  0x2B,R30
; 0000 007E OCR1AL=0x00;
	OUT  0x2A,R30
; 0000 007F OCR1BH=0x00;
	OUT  0x29,R30
; 0000 0080 OCR1BL=0x00;
	OUT  0x28,R30
; 0000 0081 
; 0000 0082 // Timer/Counter 2 initialization
; 0000 0083 // Clock source: System Clock
; 0000 0084 // Clock value: Timer2 Stopped
; 0000 0085 // Mode: Normal top=0xFF
; 0000 0086 // OC2 output: Disconnected
; 0000 0087 ASSR=0<<AS2;
	OUT  0x22,R30
; 0000 0088 TCCR2=(0<<WGM20) | (0<<COM21) | (0<<COM20) | (0<<WGM21) | (0<<CS22) | (0<<CS21) | (0<<CS20);
	OUT  0x25,R30
; 0000 0089 TCNT2=0x00;
	OUT  0x24,R30
; 0000 008A OCR2=0x00;
	OUT  0x23,R30
; 0000 008B 
; 0000 008C // Timer(s)/Counter(s) Interrupt(s) initialization
; 0000 008D TIMSK=(0<<OCIE2) | (0<<TOIE2) | (0<<TICIE1) | (0<<OCIE1A) | (0<<OCIE1B) | (0<<TOIE1) | (0<<OCIE0) | (0<<TOIE0);
	OUT  0x39,R30
; 0000 008E 
; 0000 008F // External Interrupt(s) initialization
; 0000 0090 // INT0: Off
; 0000 0091 // INT1: Off
; 0000 0092 // INT2: Off
; 0000 0093 MCUCR=(0<<ISC11) | (0<<ISC10) | (0<<ISC01) | (0<<ISC00);
	OUT  0x35,R30
; 0000 0094 MCUCSR=(0<<ISC2);
	OUT  0x34,R30
; 0000 0095 
; 0000 0096 // USART initialization
; 0000 0097 // USART disabled
; 0000 0098 UCSRB=(0<<RXCIE) | (0<<TXCIE) | (0<<UDRIE) | (0<<RXEN) | (0<<TXEN) | (0<<UCSZ2) | (0<<RXB8) | (0<<TXB8);
	OUT  0xA,R30
; 0000 0099 
; 0000 009A // Analog Comparator initialization
; 0000 009B // Analog Comparator: Off
; 0000 009C // The Analog Comparator's positive input is
; 0000 009D // connected to the AIN0 pin
; 0000 009E // The Analog Comparator's negative input is
; 0000 009F // connected to the AIN1 pin
; 0000 00A0 ACSR=(1<<ACD) | (0<<ACBG) | (0<<ACO) | (0<<ACI) | (0<<ACIE) | (0<<ACIC) | (0<<ACIS1) | (0<<ACIS0);
	LDI  R30,LOW(128)
	OUT  0x8,R30
; 0000 00A1 SFIOR=(0<<ACME);
	LDI  R30,LOW(0)
	OUT  0x30,R30
; 0000 00A2 
; 0000 00A3 // ADC initialization
; 0000 00A4 // ADC disabled
; 0000 00A5 ADCSRA=(0<<ADEN) | (0<<ADSC) | (0<<ADATE) | (0<<ADIF) | (0<<ADIE) | (0<<ADPS2) | (0<<ADPS1) | (0<<ADPS0);
	OUT  0x6,R30
; 0000 00A6 
; 0000 00A7 // SPI initialization
; 0000 00A8 // SPI disabled
; 0000 00A9 SPCR=(0<<SPIE) | (0<<SPE) | (0<<DORD) | (0<<MSTR) | (0<<CPOL) | (0<<CPHA) | (0<<SPR1) | (0<<SPR0);
	OUT  0xD,R30
; 0000 00AA 
; 0000 00AB // TWI initialization
; 0000 00AC // TWI disabled
; 0000 00AD TWCR=(0<<TWEA) | (0<<TWSTA) | (0<<TWSTO) | (0<<TWEN) | (0<<TWIE);
	OUT  0x36,R30
; 0000 00AE 
; 0000 00AF player_1.col = 6;
	RCALL SUBOPT_0x0
; 0000 00B0 player_1.row = H - 1;
; 0000 00B1 
; 0000 00B2 player_2.col = 0;
; 0000 00B3 player_2.row = 0;
; 0000 00B4 
; 0000 00B5 ball.col = 3;
	RCALL SUBOPT_0x1
	RCALL SUBOPT_0x2
; 0000 00B6 ball.row = 3;
	RCALL SUBOPT_0x3
; 0000 00B7 
; 0000 00B8 ball.col_vel = 1;
	RCALL SUBOPT_0x4
	RCALL SUBOPT_0x5
; 0000 00B9 ball.row_vel = 1;
	RCALL SUBOPT_0x6
; 0000 00BA 
; 0000 00BB while (1)
_0x3:
; 0000 00BC {
; 0000 00BD if (pause == 0) {
	SBRC R2,0
	RJMP _0x6
; 0000 00BE for (j = 0; j < BALL_SPEED; j++) {
	CLR  R8
	CLR  R9
_0x8:
	LDI  R30,LOW(30)
	LDI  R31,HIGH(30)
	CP   R8,R30
	CPC  R9,R31
	BRGE _0x9
; 0000 00BF paint();
	RCALL _paint
; 0000 00C0 check_changes();
	RCALL _check_changes
; 0000 00C1 check_pause_reset();
	RCALL _check_pause_reset
; 0000 00C2 paint_scoreboard();
	RCALL _paint_scoreboard
; 0000 00C3 }
	MOVW R30,R8
	ADIW R30,1
	MOVW R8,R30
	RJMP _0x8
_0x9:
; 0000 00C4 update_ball();
	RCALL _update_ball
; 0000 00C5 }
; 0000 00C6 paint();
_0x6:
	RCALL _paint
; 0000 00C7 check_pause_reset();
	RCALL _check_pause_reset
; 0000 00C8 paint_scoreboard();
	RCALL _paint_scoreboard
; 0000 00C9 }
	RJMP _0x3
; 0000 00CA }
_0xA:
	RJMP _0xA
; .FEND
;void update_ball() {
; 0000 00CC void update_ball() {
_update_ball:
; .FSTART _update_ball
; 0000 00CD 
; 0000 00CE ball.col += ball.col_vel;
	RCALL SUBOPT_0x7
	RCALL SUBOPT_0x8
	ADD  R30,R26
	ADC  R31,R27
	RCALL SUBOPT_0x2
; 0000 00CF if (ball.col >= W || ball.col < 0) {
	RCALL SUBOPT_0x8
	SBIW R26,8
	BRGE _0xC
	LDS  R26,_ball+1
	TST  R26
	BRPL _0xB
_0xC:
; 0000 00D0 ball.col_vel *= -1;
	RCALL SUBOPT_0x9
	RCALL SUBOPT_0xA
	RCALL SUBOPT_0x5
; 0000 00D1 ball.col += 2 * ball.col_vel;
	RCALL SUBOPT_0x7
	LSL  R30
	ROL  R31
	RCALL SUBOPT_0x8
	RCALL SUBOPT_0xB
	RCALL SUBOPT_0x2
; 0000 00D2 }
; 0000 00D3 
; 0000 00D4 ball.row += ball.row_vel;
_0xB:
	RCALL SUBOPT_0xC
	RCALL SUBOPT_0xD
; 0000 00D5 // If the ball is in the vertical borders, check if it bounces
; 0000 00D6 if (ball.row == H - 1) {
	RCALL SUBOPT_0xC
	SBIW R26,7
	BRNE _0xE
; 0000 00D7 if (ball.col == player_1.col || ball.col == player_1.col + 1) {
	RCALL SUBOPT_0xE
	RCALL SUBOPT_0xF
	BREQ _0x10
	RCALL SUBOPT_0xE
	RCALL SUBOPT_0x10
	BRNE _0xF
_0x10:
; 0000 00D8 ball.row_vel *= -1;
	RCALL SUBOPT_0x11
	RCALL SUBOPT_0x12
; 0000 00D9 ball.col_vel *= (1 - 2*(rand() % 2));
	RCALL SUBOPT_0x13
	RCALL __MULW12
	RCALL SUBOPT_0x5
; 0000 00DA ball.row += ball.row_vel;
	RCALL SUBOPT_0xC
	RCALL SUBOPT_0xD
; 0000 00DB } else {
	RJMP _0x12
_0xF:
; 0000 00DC player_2_score++;
	INC  R4
; 0000 00DD ball.col = 3;
	RCALL SUBOPT_0x1
	RCALL SUBOPT_0x2
; 0000 00DE ball.row = 3;
	RCALL SUBOPT_0x3
; 0000 00DF ball.col_vel = -1;
	LDI  R30,LOW(65535)
	LDI  R31,HIGH(65535)
	RCALL SUBOPT_0x5
; 0000 00E0 ball.row_vel = -1;
	LDI  R30,LOW(65535)
	LDI  R31,HIGH(65535)
	RCALL SUBOPT_0x12
; 0000 00E1 }
_0x12:
; 0000 00E2 }
; 0000 00E3 if (ball.row == 0) {
_0xE:
	__GETW1MN _ball,2
	SBIW R30,0
	BRNE _0x13
; 0000 00E4 if (ball.col == player_2.col || ball.col == player_2.col + 1) {
	RCALL SUBOPT_0x14
	RCALL SUBOPT_0xF
	BREQ _0x15
	RCALL SUBOPT_0x14
	RCALL SUBOPT_0x10
	BRNE _0x14
_0x15:
; 0000 00E5 ball.row_vel *= -1;
	RCALL SUBOPT_0x11
	RCALL SUBOPT_0x12
; 0000 00E6 ball.row += ball.row_vel;
	RCALL SUBOPT_0xC
	RCALL SUBOPT_0xD
; 0000 00E7 ball.col_vel *= (1 - 2*(rand() % 2));
	RCALL SUBOPT_0x13
	RCALL __MULW12
	RJMP _0x3B
; 0000 00E8 } else {
_0x14:
; 0000 00E9 player_1_score++;
	INC  R5
; 0000 00EA ball.col = 4;
	LDI  R30,LOW(4)
	LDI  R31,HIGH(4)
	RCALL SUBOPT_0x2
; 0000 00EB ball.row = 4;
	LDI  R30,LOW(4)
	LDI  R31,HIGH(4)
	__PUTW1MN _ball,2
; 0000 00EC ball.row_vel = 1;
	RCALL SUBOPT_0x6
; 0000 00ED ball.col_vel = 1;
	RCALL SUBOPT_0x4
_0x3B:
	__PUTW1MN _ball,4
; 0000 00EE }
; 0000 00EF }
; 0000 00F0 
; 0000 00F1 if (player_1_score > 9 || player_2_score > 9) {
_0x13:
	LDI  R30,LOW(9)
	CP   R30,R5
	BRLO _0x19
	CP   R30,R4
	BRSH _0x18
_0x19:
; 0000 00F2 player_1_score = 0;
	CLR  R5
; 0000 00F3 player_2_score = 0;
	CLR  R4
; 0000 00F4 player_1.col = 6;
	RCALL SUBOPT_0x0
; 0000 00F5 player_1.row = H - 1;
; 0000 00F6 
; 0000 00F7 player_2.col = 0;
; 0000 00F8 player_2.row = 0;
; 0000 00F9 }
; 0000 00FA }
_0x18:
	RET
; .FEND
;void paint_scoreboard() {
; 0000 00FC void paint_scoreboard() {
_paint_scoreboard:
; .FSTART _paint_scoreboard
; 0000 00FD PORTD = 0xeF;
	LDI  R30,LOW(239)
	OUT  0x12,R30
; 0000 00FE PORTC = display_table[player_2_score];
	MOV  R30,R4
	RCALL SUBOPT_0x15
; 0000 00FF delay_ms(1);
; 0000 0100 PORTD = 0xdF;
	LDI  R30,LOW(223)
	OUT  0x12,R30
; 0000 0101 PORTC = display_table[player_1_score];
	MOV  R30,R5
	RCALL SUBOPT_0x15
; 0000 0102 delay_ms(1);
; 0000 0103 }
	RET
; .FEND
;void check_pause_reset() {
; 0000 0105 void check_pause_reset() {
_check_pause_reset:
; .FSTART _check_pause_reset
; 0000 0106 cu_pause = PIND.6;
	CLT
	SBIC 0x10,6
	SET
	BLD  R3,1
; 0000 0107 cu_reset = PIND.7;
	CLT
	SBIC 0x10,7
	SET
	BLD  R3,3
; 0000 0108 
; 0000 0109 if (cu_pause == 0 && la_pause == 1) {
	SBRC R3,1
	RJMP _0x1C
	SBRC R3,2
	RJMP _0x1D
_0x1C:
	RJMP _0x1B
_0x1D:
; 0000 010A pause = ~pause;
	LDI  R30,LOW(1)
	EOR  R2,R30
; 0000 010B }
; 0000 010C if (cu_reset == 0 && la_reset == 1) {
_0x1B:
	SBRC R3,3
	RJMP _0x1F
	SBRC R3,4
	RJMP _0x20
_0x1F:
	RJMP _0x1E
_0x20:
; 0000 010D pause = 1;
	SET
	BLD  R2,0
; 0000 010E player_2_score = 0;
	CLR  R4
; 0000 010F player_1.col = 6;
	RCALL SUBOPT_0x0
; 0000 0110 player_1.row = H - 1;
; 0000 0111 
; 0000 0112 player_2.col = 0;
; 0000 0113 player_2.row = 0;
; 0000 0114 
; 0000 0115 player_1_score = 0;
	CLR  R5
; 0000 0116 player_2_score = 0;
	CLR  R4
; 0000 0117 
; 0000 0118 ball.col = 3;
	RCALL SUBOPT_0x1
	RCALL SUBOPT_0x2
; 0000 0119 ball.row = 3;
	RCALL SUBOPT_0x3
; 0000 011A }
; 0000 011B 
; 0000 011C la_pause = cu_pause;
_0x1E:
	BST  R3,1
	BLD  R3,2
; 0000 011D la_reset = cu_reset;
	BST  R3,3
	BLD  R3,4
; 0000 011E }
	RET
; .FEND
;void check_changes() {
; 0000 0120 void check_changes() {
_check_changes:
; .FSTART _check_changes
; 0000 0121 cu_left_1 = PIND.0;
	CLT
	SBIC 0x10,0
	SET
	BLD  R2,1
; 0000 0122 cu_left_2 = PIND.2;
	CLT
	SBIC 0x10,2
	SET
	BLD  R2,3
; 0000 0123 cu_right_1 = PIND.1;
	CLT
	SBIC 0x10,1
	SET
	BLD  R2,5
; 0000 0124 cu_right_2 = PIND.3;
	CLT
	SBIC 0x10,3
	SET
	BLD  R2,7
; 0000 0125 
; 0000 0126 // Checking for player_1 movement
; 0000 0127 if (cu_left_1 == 0 && la_left_1 == 1) {
	SBRC R2,1
	RJMP _0x22
	SBRC R2,2
	RJMP _0x23
_0x22:
	RJMP _0x21
_0x23:
; 0000 0128 if (player_1.col - 1 >= 0) player_1.col -= 1;
	RCALL SUBOPT_0xE
	LDI  R31,0
	SBIW R30,1
	TST  R31
	BRMI _0x24
	RCALL SUBOPT_0xE
	SUBI R30,LOW(1)
	STS  _player_1,R30
; 0000 0129 }
_0x24:
; 0000 012A if (cu_right_1 == 0 && la_right_1 == 1) {
_0x21:
	SBRC R2,5
	RJMP _0x26
	SBRC R2,6
	RJMP _0x27
_0x26:
	RJMP _0x25
_0x27:
; 0000 012B player_1.col++;
	RCALL SUBOPT_0xE
	SUBI R30,-LOW(1)
	STS  _player_1,R30
; 0000 012C if (player_1.col > W - 2) player_1.col = W - 2;
	LDS  R26,_player_1
	CPI  R26,LOW(0x7)
	BRLO _0x28
	LDI  R30,LOW(6)
	STS  _player_1,R30
; 0000 012D }
_0x28:
; 0000 012E // Checking for player 2 movement
; 0000 012F if (cu_left_2 == 0 && la_left_2 == 1) {
_0x25:
	SBRC R2,3
	RJMP _0x2A
	SBRC R2,4
	RJMP _0x2B
_0x2A:
	RJMP _0x29
_0x2B:
; 0000 0130 if (player_2.col - 1 >= 0) player_2.col -= 1;
	RCALL SUBOPT_0x14
	LDI  R31,0
	SBIW R30,1
	TST  R31
	BRMI _0x2C
	RCALL SUBOPT_0x14
	SUBI R30,LOW(1)
	STS  _player_2,R30
; 0000 0131 }
_0x2C:
; 0000 0132 if (cu_right_2 == 0 && la_right_2 == 1) {
_0x29:
	SBRC R2,7
	RJMP _0x2E
	SBRC R3,0
	RJMP _0x2F
_0x2E:
	RJMP _0x2D
_0x2F:
; 0000 0133 player_2.col++;
	RCALL SUBOPT_0x14
	SUBI R30,-LOW(1)
	STS  _player_2,R30
; 0000 0134 if (player_2.col > W - 2) player_2.col = W - 2;
	LDS  R26,_player_2
	CPI  R26,LOW(0x7)
	BRLO _0x30
	LDI  R30,LOW(6)
	STS  _player_2,R30
; 0000 0135 }
_0x30:
; 0000 0136 
; 0000 0137 la_left_1 = cu_left_1;
_0x2D:
	BST  R2,1
	BLD  R2,2
; 0000 0138 la_left_2 = cu_left_2;
	BST  R2,3
	BLD  R2,4
; 0000 0139 la_right_1 = cu_right_1;
	BST  R2,5
	BLD  R2,6
; 0000 013A la_right_2 = cu_right_2;
	BST  R2,7
	BLD  R3,0
; 0000 013B }
	RET
; .FEND
;void paint() {
; 0000 013D void paint() {
_paint:
; .FSTART _paint
; 0000 013E const unsigned char columns_on = 0xFF;
; 0000 013F unsigned char curr_row = 0x00;
; 0000 0140 for (i = 0; i < W; i++) {
	RCALL __SAVELOCR2
;	columns_on -> R17
;	curr_row -> R16
	LDI  R17,255
	LDI  R16,0
	CLR  R6
	CLR  R7
_0x32:
	LDI  R30,LOW(8)
	LDI  R31,HIGH(8)
	CP   R6,R30
	CPC  R7,R31
	BRGE _0x33
; 0000 0141 PORTB = columns_on & ~(1 << i);
	MOV  R30,R6
	LDI  R26,LOW(1)
	RCALL __LSLB12
	COM  R30
	AND  R30,R17
	OUT  0x18,R30
; 0000 0142 curr_row = 0x00;
	LDI  R16,LOW(0)
; 0000 0143 if (i == player_1.col || i == player_1.col + 1) {
	RCALL SUBOPT_0xE
	RCALL SUBOPT_0x16
	BREQ _0x35
	RCALL SUBOPT_0xE
	RCALL SUBOPT_0x17
	BRNE _0x34
_0x35:
; 0000 0144 curr_row |= 0x80;
	ORI  R16,LOW(128)
; 0000 0145 }
; 0000 0146 if (i == player_2.col || i == player_2.col + 1) {
_0x34:
	RCALL SUBOPT_0x14
	RCALL SUBOPT_0x16
	BREQ _0x38
	RCALL SUBOPT_0x14
	RCALL SUBOPT_0x17
	BRNE _0x37
_0x38:
; 0000 0147 curr_row |= 0x01;
	ORI  R16,LOW(1)
; 0000 0148 }
; 0000 0149 if (i == ball.col) {
_0x37:
	LDS  R30,_ball
	LDS  R31,_ball+1
	CP   R30,R6
	CPC  R31,R7
	BRNE _0x3A
; 0000 014A curr_row |= (1 << ball.row);
	__GETB1MN _ball,2
	LDI  R26,LOW(1)
	RCALL __LSLB12
	OR   R16,R30
; 0000 014B }
; 0000 014C PORTA = curr_row;
_0x3A:
	OUT  0x1B,R16
; 0000 014D delay_ms(1);
	LDI  R26,LOW(1)
	LDI  R27,0
	RCALL _delay_ms
; 0000 014E }
	MOVW R30,R6
	ADIW R30,1
	MOVW R6,R30
	RJMP _0x32
_0x33:
; 0000 014F }
	LD   R16,Y+
	LD   R17,Y+
	RET
; .FEND

	.CSEG

	.DSEG

	.CSEG
_rand:
; .FSTART _rand
	LDS  R30,__seed_G100
	LDS  R31,__seed_G100+1
	LDS  R22,__seed_G100+2
	LDS  R23,__seed_G100+3
	__GETD2N 0x41C64E6D
	RCALL __MULD12U
	__ADDD1N 30562
	STS  __seed_G100,R30
	STS  __seed_G100+1,R31
	STS  __seed_G100+2,R22
	STS  __seed_G100+3,R23
	movw r30,r22
	andi r31,0x7F
	RET
; .FEND

	.CSEG

	.CSEG

	.CSEG

	.DSEG
_player_1:
	.BYTE 0x2
_player_2:
	.BYTE 0x2
_ball:
	.BYTE 0x8
__seed_G100:
	.BYTE 0x4

	.CSEG
;OPTIMIZER ADDED SUBROUTINE, CALLED 3 TIMES, CODE SIZE REDUCTION:20 WORDS
SUBOPT_0x0:
	LDI  R30,LOW(6)
	STS  _player_1,R30
	LDI  R30,LOW(7)
	__PUTB1MN _player_1,1
	LDI  R30,LOW(0)
	STS  _player_2,R30
	__PUTB1MN _player_2,1
	RET

;OPTIMIZER ADDED SUBROUTINE, CALLED 6 TIMES, CODE SIZE REDUCTION:3 WORDS
SUBOPT_0x1:
	LDI  R30,LOW(3)
	LDI  R31,HIGH(3)
	RET

;OPTIMIZER ADDED SUBROUTINE, CALLED 6 TIMES, CODE SIZE REDUCTION:13 WORDS
SUBOPT_0x2:
	STS  _ball,R30
	STS  _ball+1,R31
	RET

;OPTIMIZER ADDED SUBROUTINE, CALLED 3 TIMES, CODE SIZE REDUCTION:6 WORDS
SUBOPT_0x3:
	RCALL SUBOPT_0x1
	__PUTW1MN _ball,2
	RET

;OPTIMIZER ADDED SUBROUTINE, CALLED 4 TIMES, CODE SIZE REDUCTION:1 WORDS
SUBOPT_0x4:
	LDI  R30,LOW(1)
	LDI  R31,HIGH(1)
	RET

;OPTIMIZER ADDED SUBROUTINE, CALLED 4 TIMES, CODE SIZE REDUCTION:7 WORDS
SUBOPT_0x5:
	__PUTW1MN _ball,4
	RET

;OPTIMIZER ADDED SUBROUTINE, CALLED 2 TIMES, CODE SIZE REDUCTION:2 WORDS
SUBOPT_0x6:
	RCALL SUBOPT_0x4
	__PUTW1MN _ball,6
	RET

;OPTIMIZER ADDED SUBROUTINE, CALLED 2 TIMES, CODE SIZE REDUCTION:1 WORDS
SUBOPT_0x7:
	__GETW1MN _ball,4
	RET

;OPTIMIZER ADDED SUBROUTINE, CALLED 7 TIMES, CODE SIZE REDUCTION:16 WORDS
SUBOPT_0x8:
	LDS  R26,_ball
	LDS  R27,_ball+1
	RET

;OPTIMIZER ADDED SUBROUTINE, CALLED 3 TIMES, CODE SIZE REDUCTION:4 WORDS
SUBOPT_0x9:
	__GETW2MN _ball,4
	RET

;OPTIMIZER ADDED SUBROUTINE, CALLED 3 TIMES, CODE SIZE REDUCTION:2 WORDS
SUBOPT_0xA:
	LDI  R30,LOW(65535)
	LDI  R31,HIGH(65535)
	RCALL __MULW12
	RET

;OPTIMIZER ADDED SUBROUTINE, CALLED 4 TIMES, CODE SIZE REDUCTION:1 WORDS
SUBOPT_0xB:
	ADD  R30,R26
	ADC  R31,R27
	RET

;OPTIMIZER ADDED SUBROUTINE, CALLED 4 TIMES, CODE SIZE REDUCTION:7 WORDS
SUBOPT_0xC:
	__GETW2MN _ball,2
	RET

;OPTIMIZER ADDED SUBROUTINE, CALLED 3 TIMES, CODE SIZE REDUCTION:14 WORDS
SUBOPT_0xD:
	__GETW1MN _ball,6
	RCALL SUBOPT_0xB
	__PUTW1MN _ball,2
	RET

;OPTIMIZER ADDED SUBROUTINE, CALLED 7 TIMES, CODE SIZE REDUCTION:4 WORDS
SUBOPT_0xE:
	LDS  R30,_player_1
	RET

;OPTIMIZER ADDED SUBROUTINE, CALLED 2 TIMES, CODE SIZE REDUCTION:1 WORDS
SUBOPT_0xF:
	RCALL SUBOPT_0x8
	LDI  R31,0
	CP   R30,R26
	CPC  R31,R27
	RET

;OPTIMIZER ADDED SUBROUTINE, CALLED 2 TIMES, CODE SIZE REDUCTION:2 WORDS
SUBOPT_0x10:
	LDI  R31,0
	ADIW R30,1
	RCALL SUBOPT_0x8
	CP   R30,R26
	CPC  R31,R27
	RET

;OPTIMIZER ADDED SUBROUTINE, CALLED 2 TIMES, CODE SIZE REDUCTION:2 WORDS
SUBOPT_0x11:
	__GETW2MN _ball,6
	RJMP SUBOPT_0xA

;OPTIMIZER ADDED SUBROUTINE, CALLED 3 TIMES, CODE SIZE REDUCTION:4 WORDS
SUBOPT_0x12:
	__PUTW1MN _ball,6
	RET

;OPTIMIZER ADDED SUBROUTINE, CALLED 2 TIMES, CODE SIZE REDUCTION:10 WORDS
SUBOPT_0x13:
	RCALL _rand
	MOVW R26,R30
	LDI  R30,LOW(2)
	LDI  R31,HIGH(2)
	RCALL __MODW21
	LSL  R30
	ROL  R31
	LDI  R26,LOW(1)
	LDI  R27,HIGH(1)
	RCALL __SWAPW12
	SUB  R30,R26
	SBC  R31,R27
	RJMP SUBOPT_0x9

;OPTIMIZER ADDED SUBROUTINE, CALLED 7 TIMES, CODE SIZE REDUCTION:4 WORDS
SUBOPT_0x14:
	LDS  R30,_player_2
	RET

;OPTIMIZER ADDED SUBROUTINE, CALLED 2 TIMES, CODE SIZE REDUCTION:5 WORDS
SUBOPT_0x15:
	LDI  R31,0
	SUBI R30,LOW(-_display_table*2)
	SBCI R31,HIGH(-_display_table*2)
	LPM  R0,Z
	OUT  0x15,R0
	LDI  R26,LOW(1)
	LDI  R27,0
	RJMP _delay_ms

;OPTIMIZER ADDED SUBROUTINE, CALLED 2 TIMES, CODE SIZE REDUCTION:1 WORDS
SUBOPT_0x16:
	MOVW R26,R6
	LDI  R31,0
	CP   R30,R26
	CPC  R31,R27
	RET

;OPTIMIZER ADDED SUBROUTINE, CALLED 2 TIMES, CODE SIZE REDUCTION:1 WORDS
SUBOPT_0x17:
	LDI  R31,0
	ADIW R30,1
	CP   R30,R6
	CPC  R31,R7
	RET

;RUNTIME LIBRARY

	.CSEG
__SAVELOCR2:
	ST   -Y,R17
	ST   -Y,R16
	RET

__ANEGW1:
	NEG  R31
	NEG  R30
	SBCI R31,0
	RET

__LSLB12:
	TST  R30
	MOV  R0,R30
	MOV  R30,R26
	BREQ __LSLB12R
__LSLB12L:
	LSL  R30
	DEC  R0
	BRNE __LSLB12L
__LSLB12R:
	RET

__MULW12U:
	MUL  R31,R26
	MOV  R31,R0
	MUL  R30,R27
	ADD  R31,R0
	MUL  R30,R26
	MOV  R30,R0
	ADD  R31,R1
	RET

__MULD12U:
	MUL  R23,R26
	MOV  R23,R0
	MUL  R22,R27
	ADD  R23,R0
	MUL  R31,R24
	ADD  R23,R0
	MUL  R30,R25
	ADD  R23,R0
	MUL  R22,R26
	MOV  R22,R0
	ADD  R23,R1
	MUL  R31,R27
	ADD  R22,R0
	ADC  R23,R1
	MUL  R30,R24
	ADD  R22,R0
	ADC  R23,R1
	CLR  R24
	MUL  R31,R26
	MOV  R31,R0
	ADD  R22,R1
	ADC  R23,R24
	MUL  R30,R27
	ADD  R31,R0
	ADC  R22,R1
	ADC  R23,R24
	MUL  R30,R26
	MOV  R30,R0
	ADD  R31,R1
	ADC  R22,R24
	ADC  R23,R24
	RET

__MULW12:
	RCALL __CHKSIGNW
	RCALL __MULW12U
	BRTC __MULW121
	RCALL __ANEGW1
__MULW121:
	RET

__DIVW21U:
	CLR  R0
	CLR  R1
	LDI  R25,16
__DIVW21U1:
	LSL  R26
	ROL  R27
	ROL  R0
	ROL  R1
	SUB  R0,R30
	SBC  R1,R31
	BRCC __DIVW21U2
	ADD  R0,R30
	ADC  R1,R31
	RJMP __DIVW21U3
__DIVW21U2:
	SBR  R26,1
__DIVW21U3:
	DEC  R25
	BRNE __DIVW21U1
	MOVW R30,R26
	MOVW R26,R0
	RET

__MODW21:
	CLT
	SBRS R27,7
	RJMP __MODW211
	NEG  R27
	NEG  R26
	SBCI R27,0
	SET
__MODW211:
	SBRC R31,7
	RCALL __ANEGW1
	RCALL __DIVW21U
	MOVW R30,R26
	BRTC __MODW212
	RCALL __ANEGW1
__MODW212:
	RET

__CHKSIGNW:
	CLT
	SBRS R31,7
	RJMP __CHKSW1
	RCALL __ANEGW1
	SET
__CHKSW1:
	SBRS R27,7
	RJMP __CHKSW2
	NEG  R27
	NEG  R26
	SBCI R27,0
	BLD  R0,0
	INC  R0
	BST  R0,0
__CHKSW2:
	RET

__SWAPW12:
	MOV  R1,R27
	MOV  R27,R31
	MOV  R31,R1

__SWAPB12:
	MOV  R1,R26
	MOV  R26,R30
	MOV  R30,R1
	RET

_delay_ms:
	adiw r26,0
	breq __delay_ms1
__delay_ms0:
	wdr
	__DELAY_USW 0xFA
	sbiw r26,1
	brne __delay_ms0
__delay_ms1:
	ret

;END OF CODE MARKER
__END_OF_CODE:
